; Function Attrs: nofree norecurse nosync nounwind memory(readwrite, inaccessiblemem: none) uwtable
define hidden noundef i32 @lxb_encoding_encode_big5(ptr nocapture noundef %0, ptr nocapture noundef %1, ptr noundef readnone %2) local_unnamed_addr #0 {
  %4 = getelementptr inbounds i8, ptr %0, i64 32
  %5 = getelementptr inbounds i8, ptr %0, i64 24
  %6 = load ptr, ptr %1, align 8
  %7 = icmp ult ptr %6, %2
  br i1 %7, label %.lr.ph, label %._crit_edge

.lr.ph:                                           ; preds = %3
  %8 = getelementptr inbounds i8, ptr %0, i64 40
  %9 = getelementptr inbounds i8, ptr %0, i64 16
  %10 = getelementptr inbounds i8, ptr %0, i64 8
  br label %11

11:                                               ; preds = %.lr.ph, %73
  %12 = phi ptr [ %6, %.lr.ph ], [ %75, %73 ]
  %13 = load i32, ptr %12, align 4
  %14 = icmp ult i32 %13, 128
  br i1 %14, label %15, label %24

15:                                               ; preds = %11
  %16 = load i64, ptr %5, align 8
  %17 = load i64, ptr %9, align 8
  %18 = icmp eq i64 %16, %17
  br i1 %18, label %._crit_edge, label %19

19:                                               ; preds = %15
  %20 = trunc i32 %13 to i8
  %21 = load ptr, ptr %10, align 8
  %22 = add i64 %16, 1
  store i64 %22, ptr %5, align 8
  %23 = getelementptr inbounds i8, ptr %21, i64 %16
  store i8 %20, ptr %23, align 1
  br label %73

24:                                               ; preds = %11
  %25 = urem i32 %13, 20172
  %.zext = zext nneg i32 %25 to i64
  %gep = getelementptr %struct.lexbor_shs_hash_t, ptr getelementptr inbounds ([23033 x %struct.lexbor_shs_hash_t], ptr @lxb_encoding_multi_hash_big5, i64 0, i64 1, i32 0), i64 %.zext
  br label %26

26:                                               ; preds = %29, %24
  %.0.i = phi ptr [ %gep, %24 ], [ %33, %29 ]
  %27 = load i32, ptr %.0.i, align 4
  %28 = icmp eq i32 %27, %13
  br i1 %28, label %lexbor_shs_hash_get_static.exit, label %29

29:                                               ; preds = %26
  %30 = getelementptr inbounds i8, ptr %.0.i, i64 8
  %31 = load i32, ptr %30, align 4
  %32 = zext i32 %31 to i64
  %33 = getelementptr inbounds %struct.lexbor_shs_hash_t, ptr @lxb_encoding_multi_hash_big5, i64 %32
  %.not.i = icmp eq i32 %31, 0
  br i1 %.not.i, label %34, label %26

34:                                               ; preds = %29
  %35 = load ptr, ptr %4, align 8
  %36 = icmp eq ptr %35, null
  br i1 %36, label %._crit_edge, label %37

37:                                               ; preds = %34
  %38 = load i64, ptr %5, align 8
  %39 = load i64, ptr %8, align 8
  %40 = add i64 %39, %38
  %41 = load i64, ptr %9, align 8
  %42 = icmp ugt i64 %40, %41
  br i1 %42, label %._crit_edge, label %43

43:                                               ; preds = %37
  %44 = load ptr, ptr %10, align 8
  %45 = getelementptr inbounds i8, ptr %44, i64 %38
  tail call void @llvm.memcpy.p0.p0.i64(ptr align 1 %45, ptr nonnull align 1 %35, i64 %39, i1 false)
  %46 = load i64, ptr %8, align 8
  %47 = load i64, ptr %5, align 8
  %48 = add i64 %47, %46
  store i64 %48, ptr %5, align 8
  br label %73

lexbor_shs_hash_get_static.exit:                  ; preds = %26
  %49 = load i64, ptr %5, align 8
  %50 = add i64 %49, 2
  %51 = load i64, ptr %9, align 8
  %52 = icmp ugt i64 %50, %51
  br i1 %52, label %._crit_edge, label %53

53:                                               ; preds = %lexbor_shs_hash_get_static.exit
  %54 = getelementptr inbounds i8, ptr %.0.i, i64 4
  %55 = load i32, ptr %54, align 4
  %56 = udiv i32 %55, 157
  %57 = trunc i32 %56 to i8
  %58 = add i8 %57, -127
  %59 = load ptr, ptr %10, align 8
  %60 = add i64 %49, 1
  store i64 %60, ptr %5, align 8
  %61 = getelementptr inbounds i8, ptr %59, i64 %49
  store i8 %58, ptr %61, align 1
  %62 = urem i32 %55, 157
  %63 = icmp ult i32 %62, 63
  %64 = trunc i32 %62 to i8
  %65 = load ptr, ptr %10, align 8
  %66 = load i64, ptr %5, align 8
  %67 = add i64 %66, 1
  store i64 %67, ptr %5, align 8
  %68 = getelementptr inbounds i8, ptr %65, i64 %66
  br i1 %63, label %69, label %71

69:                                               ; preds = %53
  %70 = or disjoint i8 %64, 64
  store i8 %70, ptr %68, align 1
  br label %73

71:                                               ; preds = %53
  %72 = add nuw i8 %64, 98
  store i8 %72, ptr %68, align 1
  br label %73

73:                                               ; preds = %69, %71, %43, %19
  %74 = load ptr, ptr %1, align 8
  %75 = getelementptr inbounds i8, ptr %74, i64 4
  store ptr %75, ptr %1, align 8
  %76 = icmp ult ptr %75, %2
  br i1 %76, label %11, label %._crit_edge

._crit_edge:                                      ; preds = %15, %34, %37, %lexbor_shs_hash_get_static.exit, %73, %3
  %.0 = phi i32 [ 0, %3 ], [ 0, %73 ], [ 15, %lexbor_shs_hash_get_static.exit ], [ 15, %37 ], [ 1, %34 ], [ 15, %15 ]
  ret i32 %.0
}